target datalayout = "e-m:e-p270:32:32-p271:32:32-p272:64:64-i64:64-i128:128-f80:128-n8:16:32:64-S128"
target triple = "x86_64-pc-linux-gnu"

%struct.rb_io = type { i64, ptr, i32, i32, i32, i32, i64, ptr, %struct.rb_io_internal_buffer, %struct.rb_io_internal_buffer, i64, %struct.rb_io_encoding, ptr, %struct.rb_io_internal_buffer, ptr, i64, i32, i32, i64, i64, i64 }
%struct.rb_io_encoding = type { ptr, ptr, i32, i64 }
%struct.rb_io_internal_buffer = type <{ ptr, i32, i32, i32 }>
%struct.RBasic = type { i64, i64 }
%struct.RFile = type { %struct.RBasic, ptr }
%struct.accept_arg = type { i32, ptr, ptr }

@rsock_do_not_reverse_lookup = global i32 1, align 4
@.str.13 = private unnamed_addr constant [10 x i8] c"accept(2)\00", align 1

; Function Attrs: inlinehint nounwind sspstrong willreturn memory(none) uwtable
define internal i64 @RB_INT2FIX(i64 noundef %0) #12 {
  %2 = alloca i64, align 8
  %3 = alloca i64, align 8
  %4 = alloca i64, align 8
  %5 = alloca i64, align 8
  %6 = alloca i64, align 8
  %7 = alloca i64, align 8
  store i64 %0, ptr %2, align 8, !tbaa !13
  call void @llvm.lifetime.start.p0(i64 8, ptr %3) #21
  %8 = load i64, ptr %2, align 8, !tbaa !13
  store i64 %8, ptr %3, align 8, !tbaa !13
  call void @llvm.lifetime.start.p0(i64 8, ptr %4) #21
  %9 = load i64, ptr %3, align 8, !tbaa !13
  %10 = shl i64 %9, 1
  %11 = add i64 %10, 1
  store i64 %11, ptr %4, align 8, !tbaa !13
  call void @llvm.lifetime.start.p0(i64 8, ptr %5) #21
  %12 = load i64, ptr %4, align 8, !tbaa !13
  store i64 %12, ptr %5, align 8, !tbaa !13
  call void @llvm.lifetime.start.p0(i64 8, ptr %6) #21
  %13 = load i64, ptr %5, align 8, !tbaa !13
  store i64 %13, ptr %6, align 8, !tbaa !13
  call void @llvm.lifetime.start.p0(i64 8, ptr %7) #21
  %14 = load i64, ptr %6, align 8, !tbaa !13
  store i64 %14, ptr %7, align 8, !tbaa !13
  %15 = load i64, ptr %7, align 8, !tbaa !13
  call void @llvm.lifetime.end.p0(i64 8, ptr %7) #21
  call void @llvm.lifetime.end.p0(i64 8, ptr %6) #21
  call void @llvm.lifetime.end.p0(i64 8, ptr %5) #21
  call void @llvm.lifetime.end.p0(i64 8, ptr %4) #21
  call void @llvm.lifetime.end.p0(i64 8, ptr %3) #21
  ret i64 %15
}

; Function Attrs: nounwind sspstrong uwtable
define i64 @rsock_init_sock(i64 noundef %0, i32 noundef %1) #0 {
  %3 = alloca i64, align 8
  %4 = alloca i32, align 4
  %5 = alloca ptr, align 8
  store i64 %0, ptr %3, align 8, !tbaa !13
  store i32 %1, ptr %4, align 4, !tbaa !11
  call void @llvm.lifetime.start.p0(i64 8, ptr %5) #21
  %6 = load i32, ptr %4, align 4, !tbaa !11
  call void @rb_update_max_fd(i32 noundef %6)
  br label %7

7:                                                ; preds = %2
  %8 = load i64, ptr %3, align 8, !tbaa !13
  %9 = call ptr @rb_io_make_open_file(i64 noundef %8)
  store ptr %9, ptr %5, align 8, !tbaa !15
  br label %10

10:                                               ; preds = %7
  br label %11

11:                                               ; preds = %10
  %12 = load i32, ptr %4, align 4, !tbaa !11
  %13 = load ptr, ptr %5, align 8, !tbaa !15
  %14 = getelementptr inbounds nuw %struct.rb_io, ptr %13, i32 0, i32 2
  store i32 %12, ptr %14, align 8, !tbaa !17
  %15 = load ptr, ptr %5, align 8, !tbaa !15
  %16 = getelementptr inbounds nuw %struct.rb_io, ptr %15, i32 0, i32 3
  store i32 35, ptr %16, align 4, !tbaa !24
  %17 = load i64, ptr %3, align 8, !tbaa !13
  %18 = call i64 @rb_io_ascii8bit_binmode(i64 noundef %17)
  %19 = load i32, ptr @rsock_do_not_reverse_lookup, align 4, !tbaa !11
  %20 = icmp ne i32 %19, 0
  br i1 %20, label %21, label %26

21:                                               ; preds = %11
  %22 = load ptr, ptr %5, align 8, !tbaa !15
  %23 = getelementptr inbounds nuw %struct.rb_io, ptr %22, i32 0, i32 3
  %24 = load i32, ptr %23, align 4, !tbaa !24
  %25 = or i32 %24, 256
  store i32 %25, ptr %23, align 4, !tbaa !24
  br label %26

26:                                               ; preds = %21, %11
  %27 = load ptr, ptr %5, align 8, !tbaa !15
  call void @rb_io_synchronized(ptr noundef %27)
  %28 = load i64, ptr %3, align 8, !tbaa !13
  call void @llvm.lifetime.end.p0(i64 8, ptr %5) #21
  ret i64 %28
}

; Function Attrs: inlinehint nounwind sspstrong uwtable
define internal i64 @rb_int2num_inline(i32 noundef %0) #6 {
  %2 = alloca i64, align 8
  %3 = alloca i32, align 4
  store i32 %0, ptr %3, align 4, !tbaa !11
  %4 = load i32, ptr %3, align 4, !tbaa !11
  %5 = sext i32 %4 to i64
  %6 = icmp slt i64 %5, 4611686018427387904
  br i1 %6, label %7, label %15

7:                                                ; preds = %1
  %8 = load i32, ptr %3, align 4, !tbaa !11
  %9 = sext i32 %8 to i64
  %10 = icmp sge i64 %9, -4611686018427387904
  br i1 %10, label %11, label %15

11:                                               ; preds = %7
  %12 = load i32, ptr %3, align 4, !tbaa !11
  %13 = sext i32 %12 to i64
  %14 = call i64 @RB_INT2FIX(i64 noundef %13) #23
  store i64 %14, ptr %2, align 8
  br label %19

15:                                               ; preds = %7, %1
  %16 = load i32, ptr %3, align 4, !tbaa !11
  %17 = sext i32 %16 to i64
  %18 = call i64 @rb_int2big(i64 noundef %17)
  store i64 %18, ptr %2, align 8
  br label %19

19:                                               ; preds = %15, %11
  %20 = load i64, ptr %2, align 8
  ret i64 %20
}

; Function Attrs: nounwind sspstrong uwtable
define i64 @rsock_s_accept(i64 noundef %0, i64 noundef %1, ptr noundef %2, ptr noundef %3) #0 {
  %5 = alloca i64, align 8
  %6 = alloca i64, align 8
  %7 = alloca i64, align 8
  %8 = alloca ptr, align 8
  %9 = alloca ptr, align 8
  %10 = alloca ptr, align 8
  %11 = alloca %struct.accept_arg, align 8
  %12 = alloca i32, align 4
  %13 = alloca i32, align 4
  %14 = alloca i32, align 4
  %15 = alloca i32, align 4
  store i64 %0, ptr %6, align 8, !tbaa !13
  store i64 %1, ptr %7, align 8, !tbaa !13
  store ptr %2, ptr %8, align 8, !tbaa !67
  store ptr %3, ptr %9, align 8, !tbaa !74
  call void @llvm.lifetime.start.p0(i64 8, ptr %10) #21
  store ptr null, ptr %10, align 8, !tbaa !15
  %16 = load i64, ptr %7, align 8, !tbaa !13
  %17 = call i64 @rb_io_taint_check(i64 noundef %16)
  %18 = inttoptr i64 %17 to ptr
  %19 = getelementptr inbounds nuw %struct.RFile, ptr %18, i32 0, i32 1
  %20 = load ptr, ptr %19, align 8, !tbaa !43
  store ptr %20, ptr %10, align 8, !tbaa !15
  call void @rb_io_check_closed(ptr noundef %20)
  call void @llvm.lifetime.start.p0(i64 24, ptr %11) #21
  %21 = getelementptr inbounds nuw %struct.accept_arg, ptr %11, i32 0, i32 0
  %22 = load ptr, ptr %10, align 8, !tbaa !15
  %23 = getelementptr inbounds nuw %struct.rb_io, ptr %22, i32 0, i32 2
  %24 = load i32, ptr %23, align 8, !tbaa !17
  store i32 %24, ptr %21, align 8, !tbaa !76
  %25 = getelementptr i8, ptr %11, i64 4
  call void @llvm.memset.p0.i64(ptr align 4 %25, i8 0, i64 4, i1 false)
  %26 = getelementptr inbounds nuw %struct.accept_arg, ptr %11, i32 0, i32 1
  %27 = load ptr, ptr %8, align 8, !tbaa !67
  store ptr %27, ptr %26, align 8, !tbaa !78
  %28 = getelementptr inbounds nuw %struct.accept_arg, ptr %11, i32 0, i32 2
  %29 = load ptr, ptr %9, align 8, !tbaa !74
  store ptr %29, ptr %28, align 8, !tbaa !79
  call void @llvm.lifetime.start.p0(i64 4, ptr %12) #21
  store i32 0, ptr %12, align 4, !tbaa !11
  call void @llvm.lifetime.start.p0(i64 4, ptr %13) #21
  br label %30

30:                                               ; preds = %54, %4
  %31 = load ptr, ptr %10, align 8, !tbaa !15
  %32 = call i64 @rb_io_blocking_region(ptr noundef %31, ptr noundef @accept_blocking, ptr noundef %11)
  %33 = trunc i64 %32 to i32
  store i32 %33, ptr %13, align 4, !tbaa !11
  %34 = load i32, ptr %13, align 4, !tbaa !11
  %35 = icmp slt i32 %34, 0
  br i1 %35, label %36, label %55

36:                                               ; preds = %30
  call void @llvm.lifetime.start.p0(i64 4, ptr %14) #21
  %37 = call ptr @rb_errno_ptr()
  %38 = load i32, ptr %37, align 4, !tbaa !11
  store i32 %38, ptr %14, align 4, !tbaa !11
  %39 = load i32, ptr %14, align 4, !tbaa !11
  switch i32 %39, label %45 [
    i32 24, label %40
    i32 23, label %40
    i32 12, label %40
  ]

40:                                               ; preds = %36, %36, %36
  %41 = load i32, ptr %12, align 4, !tbaa !11
  %42 = icmp ne i32 %41, 0
  br i1 %42, label %43, label %44

43:                                               ; preds = %40
  br label %52

44:                                               ; preds = %40
  call void @rb_gc()
  store i32 1, ptr %12, align 4, !tbaa !11
  store i32 2, ptr %15, align 4
  br label %54

45:                                               ; preds = %36
  %46 = load i32, ptr %14, align 4, !tbaa !11
  %47 = load i64, ptr %7, align 8, !tbaa !13
  %48 = call i32 @rb_io_maybe_wait_readable(i32 noundef %46, i64 noundef %47, i64 noundef 4)
  %49 = icmp ne i32 %48, 0
  br i1 %49, label %51, label %50

50:                                               ; preds = %45
  br label %52

51:                                               ; preds = %45
  store i32 0, ptr %12, align 4, !tbaa !11
  store i32 2, ptr %15, align 4
  br label %54

52:                                               ; preds = %50, %43
  %53 = load i32, ptr %14, align 4, !tbaa !11
  call void @rb_syserr_fail(i32 noundef %53, ptr noundef @.str.13) #22
  unreachable

54:                                               ; preds = %51, %44
  call void @llvm.lifetime.end.p0(i64 4, ptr %14) #21
  br label %30

55:                                               ; preds = %30
  %56 = load i32, ptr %13, align 4, !tbaa !11
  call void @rb_update_max_fd(i32 noundef %56)
  %57 = load i64, ptr %6, align 8, !tbaa !13
  %58 = icmp ne i64 %57, 0
  br i1 %58, label %62, label %59

59:                                               ; preds = %55
  %60 = load i32, ptr %13, align 4, !tbaa !11
  %61 = call i64 @rb_int2num_inline(i32 noundef %60)
  store i64 %61, ptr %5, align 8
  store i32 1, ptr %15, align 4
  br label %67

62:                                               ; preds = %55
  %63 = load i64, ptr %6, align 8, !tbaa !13
  %64 = call i64 @rb_obj_alloc(i64 noundef %63)
  %65 = load i32, ptr %13, align 4, !tbaa !11
  %66 = call i64 @rsock_init_sock(i64 noundef %64, i32 noundef %65)
  store i64 %66, ptr %5, align 8
  store i32 1, ptr %15, align 4
  br label %67

67:                                               ; preds = %62, %59
  call void @llvm.lifetime.end.p0(i64 4, ptr %13) #21
  call void @llvm.lifetime.end.p0(i64 4, ptr %12) #21
  call void @llvm.lifetime.end.p0(i64 24, ptr %11) #21
  call void @llvm.lifetime.end.p0(i64 8, ptr %10) #21
  %68 = load i64, ptr %5, align 8
  ret i64 %68
}