; Function Attrs: nounwind sspstrong uwtable
define i64 @rsock_s_accept(i64 noundef %0, i64 noundef %1, ptr noundef %2, ptr noundef %3) local_unnamed_addr #0 {
  %5 = alloca %struct.accept_arg, align 8
  %6 = tail call i64 @rb_io_taint_check(i64 noundef %1) #10
  %7 = inttoptr i64 %6 to ptr
  %8 = getelementptr inbounds nuw i8, ptr %7, i64 16
  %9 = load ptr, ptr %8, align 8, !tbaa !47
  tail call void @rb_io_check_closed(ptr noundef %9) #10
  call void @llvm.lifetime.start.p0(i64 24, ptr nonnull %5) #10
  %10 = getelementptr inbounds nuw i8, ptr %9, i64 16
  %11 = load i32, ptr %10, align 8, !tbaa !12
  store i32 %11, ptr %5, align 8, !tbaa !72
  %12 = getelementptr inbounds nuw i8, ptr %5, i64 4
  store i32 0, ptr %12, align 4
  %13 = getelementptr inbounds nuw i8, ptr %5, i64 8
  store ptr %2, ptr %13, align 8, !tbaa !75
  %14 = getelementptr inbounds nuw i8, ptr %5, i64 16
  store ptr %3, ptr %14, align 8, !tbaa !76
  %15 = call i64 @rb_io_blocking_region(ptr noundef %9, ptr noundef nonnull @accept_blocking, ptr noundef nonnull %5) #10
  %16 = trunc i64 %15 to i32
  %17 = icmp slt i32 %16, 0
  br i1 %17, label %.lr.ph, label %._crit_edge

.lr.ph:                                           ; preds = %4, %25
  %.01625 = phi i32 [ %.1, %25 ], [ 0, %4 ]
  %18 = call ptr @rb_errno_ptr() #10
  %19 = load i32, ptr %18, align 4, !tbaa !6
  switch i32 %19, label %22 [
    i32 24, label %20
    i32 23, label %20
    i32 12, label %20
  ]

20:                                               ; preds = %.lr.ph, %.lr.ph, %.lr.ph
  %.not19 = icmp eq i32 %.01625, 0
  br i1 %.not19, label %21, label %24

21:                                               ; preds = %20
  call void @rb_gc() #10
  br label %25

22:                                               ; preds = %.lr.ph
  %23 = call i32 @rb_io_maybe_wait_readable(i32 noundef %19, i64 noundef %1, i64 noundef 4) #10
  %.not20 = icmp eq i32 %23, 0
  br i1 %.not20, label %24, label %25

24:                                               ; preds = %22, %20
  call void @rb_syserr_fail(i32 noundef %19, ptr noundef nonnull @.str.13) #11
  unreachable

25:                                               ; preds = %22, %21
  %.1 = phi i32 [ 1, %21 ], [ 0, %22 ]
  %26 = call i64 @rb_io_blocking_region(ptr noundef %9, ptr noundef nonnull @accept_blocking, ptr noundef nonnull %5) #10
  %27 = trunc i64 %26 to i32
  %28 = icmp slt i32 %27, 0
  br i1 %28, label %.lr.ph, label %._crit_edge

._crit_edge:                                      ; preds = %25, %4
  %.lcssa22 = phi i64 [ %15, %4 ], [ %26, %25 ]
  %.lcssa = phi i32 [ %16, %4 ], [ %27, %25 ]
  call void @rb_update_max_fd(i32 noundef %.lcssa) #10
  %.not = icmp eq i64 %0, 0
  br i1 %.not, label %29, label %33

29:                                               ; preds = %._crit_edge
  %30 = shl i64 %.lcssa22, 1
  %31 = and i64 %30, 4294967294
  %32 = or disjoint i64 %31, 1
  br label %43

33:                                               ; preds = %._crit_edge
  %34 = call i64 @rb_obj_alloc(i64 noundef %0) #10
  call void @rb_update_max_fd(i32 noundef %.lcssa) #10
  %35 = call ptr @rb_io_make_open_file(i64 noundef %34) #10
  %36 = getelementptr inbounds nuw i8, ptr %35, i64 16
  store i32 %.lcssa, ptr %36, align 8, !tbaa !12
  %37 = getelementptr inbounds nuw i8, ptr %35, i64 20
  store i32 35, ptr %37, align 4, !tbaa !21
  %38 = call i64 @rb_io_ascii8bit_binmode(i64 noundef %34) #10
  %39 = load i32, ptr @rsock_do_not_reverse_lookup, align 4, !tbaa !6
  %.not.i = icmp eq i32 %39, 0
  br i1 %.not.i, label %rsock_init_sock.exit, label %40

40:                                               ; preds = %33
  %41 = load i32, ptr %37, align 4, !tbaa !21
  %42 = or i32 %41, 256
  store i32 %42, ptr %37, align 4, !tbaa !21
  br label %rsock_init_sock.exit

rsock_init_sock.exit:                             ; preds = %33, %40
  call void @rb_io_synchronized(ptr noundef nonnull %35) #10
  br label %43

43:                                               ; preds = %rsock_init_sock.exit, %29
  %.0 = phi i64 [ %34, %rsock_init_sock.exit ], [ %32, %29 ]
  call void @llvm.lifetime.end.p0(i64 24, ptr nonnull %5) #10
  ret i64 %.0
}